; ModuleID = '27/2108.c'
source_filename = "27/2108.c"
target datalayout = "e-m:e-p270:32:32-p271:32:32-p272:64:64-i64:64-f80:128-n8:16:32:64-S128"
target triple = "x86_64-pc-linux-gnu"

@.str = private unnamed_addr constant [3 x i8] c"%d\00", align 1
@.str.1 = private unnamed_addr constant [10 x i8] c"%lf%lf%lf\00", align 1
@.str.2 = private unnamed_addr constant [17 x i8] c"x1=%.5f;x2=%.5f\0A\00", align 1
@.str.3 = private unnamed_addr constant [9 x i8] c"x1=x2=0\0A\00", align 1
@.str.4 = private unnamed_addr constant [12 x i8] c"x1=x2=%.5f\0A\00", align 1
@.str.5 = private unnamed_addr constant [29 x i8] c"x1=%.5f+%.5fi;x2=%.5f-%.5fi\0A\00", align 1

; Function Attrs: noinline nounwind uwtable
define dso_local i32 @main() #0 {
  %1 = alloca i32, align 4
  %2 = alloca i32, align 4
  %3 = alloca i32, align 4
  %4 = alloca double, align 8
  %5 = alloca double, align 8
  %6 = alloca double, align 8
  %7 = alloca double, align 8
  store i32 0, i32* %1, align 4
  %8 = call i32 (i8*, ...) @__isoc99_scanf(i8* getelementptr inbounds ([3 x i8], [3 x i8]* @.str, i64 0, i64 0), i32* %2)
  store i32 0, i32* %3, align 4
  br label %9

9:                                                ; preds = %85, %0
  %10 = load i32, i32* %3, align 4
  %11 = load i32, i32* %2, align 4
  %12 = icmp slt i32 %10, %11
  br i1 %12, label %13, label %88

13:                                               ; preds = %9
  %14 = call i32 (i8*, ...) @__isoc99_scanf(i8* getelementptr inbounds ([10 x i8], [10 x i8]* @.str.1, i64 0, i64 0), double* %4, double* %5, double* %6)
  %15 = load double, double* %5, align 8
  %16 = load double, double* %5, align 8
  %17 = fmul double %15, %16
  %18 = load double, double* %4, align 8
  %19 = fmul double 4.000000e+00, %18
  %20 = load double, double* %6, align 8
  %21 = fmul double %19, %20
  %22 = fsub double %17, %21
  store double %22, double* %7, align 8
  %23 = load double, double* %7, align 8
  %24 = fcmp ogt double %23, 0.000000e+00
  br i1 %24, label %25, label %43

25:                                               ; preds = %13
  %26 = load double, double* %5, align 8
  %27 = fneg double %26
  %28 = load double, double* %7, align 8
  %29 = call double @sqrt(double %28) #3
  %30 = fadd double %27, %29
  %31 = load double, double* %4, align 8
  %32 = fmul double 2.000000e+00, %31
  %33 = fdiv double %30, %32
  %34 = load double, double* %5, align 8
  %35 = fneg double %34
  %36 = load double, double* %7, align 8
  %37 = call double @sqrt(double %36) #3
  %38 = fsub double %35, %37
  %39 = load double, double* %4, align 8
  %40 = fmul double 2.000000e+00, %39
  %41 = fdiv double %38, %40
  %42 = call i32 (i8*, ...) @printf(i8* getelementptr inbounds ([17 x i8], [17 x i8]* @.str.2, i64 0, i64 0), double %33, double %41)
  br label %84

43:                                               ; preds = %13
  %44 = load double, double* %7, align 8
  %45 = fcmp oeq double %44, 0.000000e+00
  br i1 %45, label %46, label %59

46:                                               ; preds = %43
  %47 = load double, double* %5, align 8
  %48 = fcmp oeq double %47, 0.000000e+00
  br i1 %48, label %49, label %51

49:                                               ; preds = %46
  %50 = call i32 (i8*, ...) @printf(i8* getelementptr inbounds ([9 x i8], [9 x i8]* @.str.3, i64 0, i64 0))
  br label %58

51:                                               ; preds = %46
  %52 = load double, double* %5, align 8
  %53 = fneg double %52
  %54 = load double, double* %4, align 8
  %55 = fmul double 2.000000e+00, %54
  %56 = fdiv double %53, %55
  %57 = call i32 (i8*, ...) @printf(i8* getelementptr inbounds ([12 x i8], [12 x i8]* @.str.4, i64 0, i64 0), double %56)
  br label %58

58:                                               ; preds = %51, %49
  br label %83

59:                                               ; preds = %43
  %60 = load double, double* %7, align 8
  %61 = fneg double %60
  store double %61, double* %7, align 8
  %62 = load double, double* %5, align 8
  %63 = fneg double %62
  %64 = load double, double* %4, align 8
  %65 = fmul double 2.000000e+00, %64
  %66 = fdiv double %63, %65
  %67 = load double, double* %7, align 8
  %68 = call double @sqrt(double %67) #3
  %69 = load double, double* %4, align 8
  %70 = fmul double 2.000000e+00, %69
  %71 = fdiv double %68, %70
  %72 = load double, double* %5, align 8
  %73 = fneg double %72
  %74 = load double, double* %4, align 8
  %75 = fmul double 2.000000e+00, %74
  %76 = fdiv double %73, %75
  %77 = load double, double* %7, align 8
  %78 = call double @sqrt(double %77) #3
  %79 = load double, double* %4, align 8
  %80 = fmul double 2.000000e+00, %79
  %81 = fdiv double %78, %80
  %82 = call i32 (i8*, ...) @printf(i8* getelementptr inbounds ([29 x i8], [29 x i8]* @.str.5, i64 0, i64 0), double %66, double %71, double %76, double %81)
  br label %83

83:                                               ; preds = %59, %58
  br label %84

84:                                               ; preds = %83, %25
  br label %85

85:                                               ; preds = %84
  %86 = load i32, i32* %3, align 4
  %87 = add nsw i32 %86, 1
  store i32 %87, i32* %3, align 4
  br label %9

88:                                               ; preds = %9
  ret i32 0
}

declare dso_local i32 @__isoc99_scanf(i8*, ...) #1

declare dso_local i32 @printf(i8*, ...) #1

; Function Attrs: nounwind
declare dso_local double @sqrt(double) #2


!llvm.module.flags = !{!0}
!llvm.ident = !{!1}

!0 = !{i32 1, !"wchar_size", i32 4}
!1 = !{!"clang version 10.0.0-4ubuntu1 "}
